target datalayout = "e-m:e-p270:32:32-p271:32:32-p272:64:64-i64:64-i128:128-f80:128-n8:16:32:64-S128"
target triple = "x86_64-pc-linux-gnu"

%struct.lean_object = type { i32, i32 }
%struct.lean_closure_object = type { %struct.lean_object, ptr, i16, i16, [0 x ptr] }

@l_Task_Priority_default = external global ptr, align 8
@l_Lake_buildSharedLib___closed__1 = internal global ptr null, align 8

; Function Attrs: inlinehint nounwind uwtable
define internal i64 @lean_align(i64 noundef %0, i64 noundef %1) #0 {
  %3 = alloca i64, align 8
  %4 = alloca i64, align 8
  store i64 %0, ptr %3, align 8, !tbaa !8
  store i64 %1, ptr %4, align 8, !tbaa !8
  %5 = load i64, ptr %3, align 8, !tbaa !8
  %6 = load i64, ptr %4, align 8, !tbaa !8
  %7 = udiv i64 %5, %6
  %8 = load i64, ptr %4, align 8, !tbaa !8
  %9 = mul i64 %7, %8
  %10 = load i64, ptr %4, align 8, !tbaa !8
  %11 = load i64, ptr %3, align 8, !tbaa !8
  %12 = load i64, ptr %4, align 8, !tbaa !8
  %13 = urem i64 %11, %12
  %14 = icmp ne i64 %13, 0
  %15 = zext i1 %14 to i32
  %16 = sext i32 %15 to i64
  %17 = mul i64 %10, %16
  %18 = add i64 %9, %17
  ret i64 %18
}

; Function Attrs: inlinehint nounwind uwtable
define internal ptr @lean_to_closure(ptr noundef %0) #0 {
  %2 = alloca ptr, align 8
  store ptr %0, ptr %2, align 8, !tbaa !10
  %3 = load ptr, ptr %2, align 8, !tbaa !10
  ret ptr %3
}

; Function Attrs: inlinehint nounwind uwtable
define internal void @lean_set_st_header(ptr noundef %0, i32 noundef %1, i32 noundef %2) #0 {
  %4 = alloca ptr, align 8
  %5 = alloca i32, align 4
  %6 = alloca i32, align 4
  store ptr %0, ptr %4, align 8, !tbaa !10
  store i32 %1, ptr %5, align 4, !tbaa !4
  store i32 %2, ptr %6, align 4, !tbaa !4
  %7 = load ptr, ptr %4, align 8, !tbaa !10
  %8 = getelementptr inbounds nuw %struct.lean_object, ptr %7, i32 0, i32 0
  store i32 1, ptr %8, align 4, !tbaa !15
  %9 = load i32, ptr %5, align 4, !tbaa !4
  %10 = load ptr, ptr %4, align 8, !tbaa !10
  %11 = getelementptr inbounds nuw %struct.lean_object, ptr %10, i32 0, i32 1
  %12 = load i32, ptr %11, align 4
  %13 = and i32 %9, 255
  %14 = shl i32 %13, 24
  %15 = and i32 %12, 16777215
  %16 = or i32 %15, %14
  store i32 %16, ptr %11, align 4
  %17 = load i32, ptr %6, align 4, !tbaa !4
  %18 = load ptr, ptr %4, align 8, !tbaa !10
  %19 = getelementptr inbounds nuw %struct.lean_object, ptr %18, i32 0, i32 1
  %20 = load i32, ptr %19, align 4
  %21 = and i32 %17, 255
  %22 = shl i32 %21, 16
  %23 = and i32 %20, -16711681
  %24 = or i32 %23, %22
  store i32 %24, ptr %19, align 4
  ret void
}

; Function Attrs: inlinehint nounwind uwtable
define internal ptr @lean_alloc_small_object(i32 noundef %0) #0 {
  %2 = alloca i32, align 4
  %3 = alloca ptr, align 8
  %4 = alloca ptr, align 8
  store i32 %0, ptr %2, align 4, !tbaa !4
  call void @lean_inc_heartbeat()
  %5 = load i32, ptr %2, align 4, !tbaa !4
  %6 = zext i32 %5 to i64
  %7 = call i64 @lean_align(i64 noundef %6, i64 noundef 8)
  %8 = trunc i64 %7 to i32
  store i32 %8, ptr %2, align 4, !tbaa !4
  call void @llvm.lifetime.start.p0(i64 8, ptr %3) #7
  %9 = load i32, ptr %2, align 4, !tbaa !4
  %10 = zext i32 %9 to i64
  %11 = call noalias ptr @mi_malloc_small(i64 noundef %10)
  store ptr %11, ptr %3, align 8, !tbaa !10
  %12 = load ptr, ptr %3, align 8, !tbaa !10
  %13 = icmp eq ptr %12, null
  br i1 %13, label %14, label %15

14:                                               ; preds = %1
  call void @lean_internal_panic_out_of_memory() #8
  unreachable

15:                                               ; preds = %1
  call void @llvm.lifetime.start.p0(i64 8, ptr %4) #7
  %16 = load ptr, ptr %3, align 8, !tbaa !10
  store ptr %16, ptr %4, align 8, !tbaa !10
  %17 = load i32, ptr %2, align 4, !tbaa !4
  %18 = load ptr, ptr %4, align 8, !tbaa !10
  %19 = getelementptr inbounds nuw %struct.lean_object, ptr %18, i32 0, i32 1
  %20 = load i32, ptr %19, align 4
  %21 = and i32 %17, 65535
  %22 = and i32 %20, -65536
  %23 = or i32 %22, %21
  store i32 %23, ptr %19, align 4
  %24 = load ptr, ptr %4, align 8, !tbaa !10
  call void @llvm.lifetime.end.p0(i64 8, ptr %4) #7
  call void @llvm.lifetime.end.p0(i64 8, ptr %3) #7
  ret ptr %24
}

; Function Attrs: inlinehint nounwind uwtable
define internal void @lean_closure_set(ptr noundef %0, i32 noundef %1, ptr noundef %2) #0 {
  %4 = alloca ptr, align 8
  %5 = alloca i32, align 4
  %6 = alloca ptr, align 8
  store ptr %0, ptr %4, align 8, !tbaa !10
  store i32 %1, ptr %5, align 4, !tbaa !4
  store ptr %2, ptr %6, align 8, !tbaa !10
  %7 = load ptr, ptr %6, align 8, !tbaa !10
  %8 = load ptr, ptr %4, align 8, !tbaa !10
  %9 = call ptr @lean_to_closure(ptr noundef %8)
  %10 = getelementptr inbounds nuw %struct.lean_closure_object, ptr %9, i32 0, i32 4
  %11 = load i32, ptr %5, align 4, !tbaa !4
  %12 = zext i32 %11 to i64
  %13 = getelementptr inbounds nuw [0 x ptr], ptr %10, i64 0, i64 %12
  store ptr %7, ptr %13, align 8, !tbaa !10
  ret void
}

; Function Attrs: inlinehint nounwind uwtable
define internal ptr @lean_alloc_closure(ptr noundef %0, i32 noundef %1, i32 noundef %2) #0 {
  %4 = alloca ptr, align 8
  %5 = alloca i32, align 4
  %6 = alloca i32, align 4
  %7 = alloca ptr, align 8
  store ptr %0, ptr %4, align 8, !tbaa !10
  store i32 %1, ptr %5, align 4, !tbaa !4
  store i32 %2, ptr %6, align 4, !tbaa !4
  call void @llvm.lifetime.start.p0(i64 8, ptr %7) #7
  %8 = load i32, ptr %6, align 4, !tbaa !4
  %9 = zext i32 %8 to i64
  %10 = mul i64 8, %9
  %11 = add i64 24, %10
  %12 = trunc i64 %11 to i32
  %13 = call ptr @lean_alloc_small_object(i32 noundef %12)
  store ptr %13, ptr %7, align 8, !tbaa !10
  %14 = load ptr, ptr %7, align 8, !tbaa !10
  call void @lean_set_st_header(ptr noundef %14, i32 noundef 245, i32 noundef 0)
  %15 = load ptr, ptr %4, align 8, !tbaa !10
  %16 = load ptr, ptr %7, align 8, !tbaa !10
  %17 = getelementptr inbounds nuw %struct.lean_closure_object, ptr %16, i32 0, i32 1
  store ptr %15, ptr %17, align 8, !tbaa !10
  %18 = load i32, ptr %5, align 4, !tbaa !4
  %19 = trunc i32 %18 to i16
  %20 = load ptr, ptr %7, align 8, !tbaa !10
  %21 = getelementptr inbounds nuw %struct.lean_closure_object, ptr %20, i32 0, i32 2
  store i16 %19, ptr %21, align 8, !tbaa !17
  %22 = load i32, ptr %6, align 4, !tbaa !4
  %23 = trunc i32 %22 to i16
  %24 = load ptr, ptr %7, align 8, !tbaa !10
  %25 = getelementptr inbounds nuw %struct.lean_closure_object, ptr %24, i32 0, i32 3
  store i16 %23, ptr %25, align 2, !tbaa !17
  %26 = load ptr, ptr %7, align 8, !tbaa !10
  call void @llvm.lifetime.end.p0(i64 8, ptr %7) #7
  ret ptr %26
}

; Function Attrs: inlinehint nounwind uwtable
define internal ptr @lean_box(i64 noundef %0) #0 {
  %2 = alloca i64, align 8
  store i64 %0, ptr %2, align 8, !tbaa !8
  %3 = load i64, ptr %2, align 8, !tbaa !8
  %4 = shl i64 %3, 1
  %5 = or i64 %4, 1
  %6 = inttoptr i64 %5 to ptr
  ret ptr %6
}

; Function Attrs: alwaysinline nounwind uwtable
define internal void @lean_dec_ref(ptr noundef %0) #1 {
  %2 = alloca ptr, align 8
  store ptr %0, ptr %2, align 8, !tbaa !10
  %3 = load ptr, ptr %2, align 8, !tbaa !10
  %4 = getelementptr inbounds nuw %struct.lean_object, ptr %3, i32 0, i32 0
  %5 = load i32, ptr %4, align 4, !tbaa !15
  %6 = icmp sgt i32 %5, 1
  %7 = zext i1 %6 to i32
  %8 = sext i32 %7 to i64
  %9 = call i64 @llvm.expect.i64(i64 %8, i64 1)
  %10 = icmp ne i64 %9, 0
  br i1 %10, label %11, label %16

11:                                               ; preds = %1
  %12 = load ptr, ptr %2, align 8, !tbaa !10
  %13 = getelementptr inbounds nuw %struct.lean_object, ptr %12, i32 0, i32 0
  %14 = load i32, ptr %13, align 4, !tbaa !15
  %15 = add i32 %14, -1
  store i32 %15, ptr %13, align 4, !tbaa !15
  br label %24

16:                                               ; preds = %1
  %17 = load ptr, ptr %2, align 8, !tbaa !10
  %18 = getelementptr inbounds nuw %struct.lean_object, ptr %17, i32 0, i32 0
  %19 = load i32, ptr %18, align 4, !tbaa !15
  %20 = icmp ne i32 %19, 0
  br i1 %20, label %21, label %23

21:                                               ; preds = %16
  %22 = load ptr, ptr %2, align 8, !tbaa !10
  call void @lean_dec_ref_cold(ptr noundef %22)
  br label %23

23:                                               ; preds = %21, %16
  br label %24

24:                                               ; preds = %23, %11
  ret void
}

; Function Attrs: alwaysinline nounwind uwtable
define internal zeroext i1 @lean_is_scalar(ptr noundef %0) #1 {
  %2 = alloca ptr, align 8
  store ptr %0, ptr %2, align 8, !tbaa !10
  %3 = load ptr, ptr %2, align 8, !tbaa !10
  %4 = ptrtoint ptr %3 to i64
  %5 = and i64 %4, 1
  %6 = icmp eq i64 %5, 1
  ret i1 %6
}

; Function Attrs: nounwind uwtable
define ptr @l_Lake_buildSharedLib(ptr noundef %0, ptr noundef %1, ptr noundef %2, ptr noundef %3, ptr noundef %4, ptr noundef %5, ptr noundef %6, ptr noundef %7, i8 noundef zeroext %8, i8 noundef zeroext %9, ptr noundef %10, ptr noundef %11, ptr noundef %12, ptr noundef %13, ptr noundef %14, ptr noundef %15) #2 {
  %17 = alloca ptr, align 8
  %18 = alloca ptr, align 8
  %19 = alloca ptr, align 8
  %20 = alloca ptr, align 8
  %21 = alloca ptr, align 8
  %22 = alloca ptr, align 8
  %23 = alloca ptr, align 8
  %24 = alloca ptr, align 8
  %25 = alloca i8, align 1
  %26 = alloca i8, align 1
  %27 = alloca ptr, align 8
  %28 = alloca ptr, align 8
  %29 = alloca ptr, align 8
  %30 = alloca ptr, align 8
  %31 = alloca ptr, align 8
  %32 = alloca ptr, align 8
  %33 = alloca ptr, align 8
  %34 = alloca ptr, align 8
  %35 = alloca ptr, align 8
  %36 = alloca ptr, align 8
  %37 = alloca ptr, align 8
  %38 = alloca ptr, align 8
  %39 = alloca i8, align 1
  %40 = alloca ptr, align 8
  store ptr %0, ptr %17, align 8, !tbaa !10
  store ptr %1, ptr %18, align 8, !tbaa !10
  store ptr %2, ptr %19, align 8, !tbaa !10
  store ptr %3, ptr %20, align 8, !tbaa !10
  store ptr %4, ptr %21, align 8, !tbaa !10
  store ptr %5, ptr %22, align 8, !tbaa !10
  store ptr %6, ptr %23, align 8, !tbaa !10
  store ptr %7, ptr %24, align 8, !tbaa !10
  store i8 %8, ptr %25, align 1, !tbaa !12
  store i8 %9, ptr %26, align 1, !tbaa !12
  store ptr %10, ptr %27, align 8, !tbaa !10
  store ptr %11, ptr %28, align 8, !tbaa !10
  store ptr %12, ptr %29, align 8, !tbaa !10
  store ptr %13, ptr %30, align 8, !tbaa !10
  store ptr %14, ptr %31, align 8, !tbaa !10
  store ptr %15, ptr %32, align 8, !tbaa !10
  br label %41

41:                                               ; preds = %16
  call void @llvm.lifetime.start.p0(i64 8, ptr %33) #7
  call void @llvm.lifetime.start.p0(i64 8, ptr %34) #7
  call void @llvm.lifetime.start.p0(i64 8, ptr %35) #7
  call void @llvm.lifetime.start.p0(i64 8, ptr %36) #7
  call void @llvm.lifetime.start.p0(i64 8, ptr %37) #7
  call void @llvm.lifetime.start.p0(i64 8, ptr %38) #7
  call void @llvm.lifetime.start.p0(i64 1, ptr %39) #7
  call void @llvm.lifetime.start.p0(i64 8, ptr %40) #7
  %42 = load ptr, ptr @l_Lake_buildSharedLib___closed__1, align 8, !tbaa !10
  store ptr %42, ptr %33, align 8, !tbaa !10
  %43 = load ptr, ptr %19, align 8, !tbaa !10
  %44 = load ptr, ptr %33, align 8, !tbaa !10
  %45 = call ptr @l_Lake_Job_collectArray___rarg(ptr noundef %43, ptr noundef %44)
  store ptr %45, ptr %34, align 8, !tbaa !10
  %46 = load i8, ptr %26, align 1, !tbaa !12
  %47 = zext i8 %46 to i64
  %48 = call ptr @lean_box(i64 noundef %47)
  store ptr %48, ptr %35, align 8, !tbaa !10
  %49 = load i8, ptr %25, align 1, !tbaa !12
  %50 = zext i8 %49 to i64
  %51 = call ptr @lean_box(i64 noundef %50)
  store ptr %51, ptr %36, align 8, !tbaa !10
  %52 = call ptr @lean_alloc_closure(ptr noundef @l_Lake_buildSharedLib___lambda__3___boxed, i32 noundef 16, i32 noundef 9)
  store ptr %52, ptr %37, align 8, !tbaa !10
  %53 = load ptr, ptr %37, align 8, !tbaa !10
  %54 = load ptr, ptr %20, align 8, !tbaa !10
  call void @lean_closure_set(ptr noundef %53, i32 noundef 0, ptr noundef %54)
  %55 = load ptr, ptr %37, align 8, !tbaa !10
  %56 = load ptr, ptr %22, align 8, !tbaa !10
  call void @lean_closure_set(ptr noundef %55, i32 noundef 1, ptr noundef %56)
  %57 = load ptr, ptr %37, align 8, !tbaa !10
  %58 = load ptr, ptr %24, align 8, !tbaa !10
  call void @lean_closure_set(ptr noundef %57, i32 noundef 2, ptr noundef %58)
  %59 = load ptr, ptr %37, align 8, !tbaa !10
  %60 = load ptr, ptr %21, align 8, !tbaa !10
  call void @lean_closure_set(ptr noundef %59, i32 noundef 3, ptr noundef %60)
  %61 = load ptr, ptr %37, align 8, !tbaa !10
  %62 = load ptr, ptr %18, align 8, !tbaa !10
  call void @lean_closure_set(ptr noundef %61, i32 noundef 4, ptr noundef %62)
  %63 = load ptr, ptr %37, align 8, !tbaa !10
  %64 = load ptr, ptr %23, align 8, !tbaa !10
  call void @lean_closure_set(ptr noundef %63, i32 noundef 5, ptr noundef %64)
  %65 = load ptr, ptr %37, align 8, !tbaa !10
  %66 = load ptr, ptr %35, align 8, !tbaa !10
  call void @lean_closure_set(ptr noundef %65, i32 noundef 6, ptr noundef %66)
  %67 = load ptr, ptr %37, align 8, !tbaa !10
  %68 = load ptr, ptr %17, align 8, !tbaa !10
  call void @lean_closure_set(ptr noundef %67, i32 noundef 7, ptr noundef %68)
  %69 = load ptr, ptr %37, align 8, !tbaa !10
  %70 = load ptr, ptr %36, align 8, !tbaa !10
  call void @lean_closure_set(ptr noundef %69, i32 noundef 8, ptr noundef %70)
  %71 = load ptr, ptr @l_Task_Priority_default, align 8, !tbaa !10
  store ptr %71, ptr %38, align 8, !tbaa !10
  store i8 0, ptr %39, align 1, !tbaa !12
  %72 = load ptr, ptr %34, align 8, !tbaa !10
  %73 = load ptr, ptr %37, align 8, !tbaa !10
  %74 = load ptr, ptr %38, align 8, !tbaa !10
  %75 = load i8, ptr %39, align 1, !tbaa !12
  %76 = load ptr, ptr %27, align 8, !tbaa !10
  %77 = load ptr, ptr %28, align 8, !tbaa !10
  %78 = load ptr, ptr %29, align 8, !tbaa !10
  %79 = load ptr, ptr %30, align 8, !tbaa !10
  %80 = load ptr, ptr %31, align 8, !tbaa !10
  %81 = load ptr, ptr %32, align 8, !tbaa !10
  %82 = call ptr @l_Lake_Job_bindM___at_Lake_buildSharedLib___spec__7(ptr noundef %72, ptr noundef %73, ptr noundef %74, i8 noundef zeroext %75, ptr noundef %76, ptr noundef %77, ptr noundef %78, ptr noundef %79, ptr noundef %80, ptr noundef %81)
  store ptr %82, ptr %40, align 8, !tbaa !10
  %83 = load ptr, ptr %40, align 8, !tbaa !10
  call void @llvm.lifetime.end.p0(i64 8, ptr %40) #7
  call void @llvm.lifetime.end.p0(i64 1, ptr %39) #7
  call void @llvm.lifetime.end.p0(i64 8, ptr %38) #7
  call void @llvm.lifetime.end.p0(i64 8, ptr %37) #7
  call void @llvm.lifetime.end.p0(i64 8, ptr %36) #7
  call void @llvm.lifetime.end.p0(i64 8, ptr %35) #7
  call void @llvm.lifetime.end.p0(i64 8, ptr %34) #7
  call void @llvm.lifetime.end.p0(i64 8, ptr %33) #7
  ret ptr %83
}

; Function Attrs: alwaysinline nounwind uwtable
define internal void @lean_dec(ptr noundef %0) #1 {
  %2 = alloca ptr, align 8
  store ptr %0, ptr %2, align 8, !tbaa !10
  %3 = load ptr, ptr %2, align 8, !tbaa !10
  %4 = call zeroext i1 @lean_is_scalar(ptr noundef %3)
  br i1 %4, label %7, label %5

5:                                                ; preds = %1
  %6 = load ptr, ptr %2, align 8, !tbaa !10
  call void @lean_dec_ref(ptr noundef %6)
  br label %7

7:                                                ; preds = %5, %1
  ret void
}

; Function Attrs: inlinehint nounwind uwtable
define internal i64 @lean_unbox(ptr noundef %0) #0 {
  %2 = alloca ptr, align 8
  store ptr %0, ptr %2, align 8, !tbaa !10
  %3 = load ptr, ptr %2, align 8, !tbaa !10
  %4 = ptrtoint ptr %3 to i64
  %5 = lshr i64 %4, 1
  ret i64 %5
}

; Function Attrs: nounwind uwtable
define ptr @l_Lake_buildSharedLib___boxed(ptr noundef %0, ptr noundef %1, ptr noundef %2, ptr noundef %3, ptr noundef %4, ptr noundef %5, ptr noundef %6, ptr noundef %7, ptr noundef %8, ptr noundef %9, ptr noundef %10, ptr noundef %11, ptr noundef %12, ptr noundef %13, ptr noundef %14, ptr noundef %15) #2 {
  %17 = alloca ptr, align 8
  %18 = alloca ptr, align 8
  %19 = alloca ptr, align 8
  %20 = alloca ptr, align 8
  %21 = alloca ptr, align 8
  %22 = alloca ptr, align 8
  %23 = alloca ptr, align 8
  %24 = alloca ptr, align 8
  %25 = alloca ptr, align 8
  %26 = alloca ptr, align 8
  %27 = alloca ptr, align 8
  %28 = alloca ptr, align 8
  %29 = alloca ptr, align 8
  %30 = alloca ptr, align 8
  %31 = alloca ptr, align 8
  %32 = alloca ptr, align 8
  %33 = alloca i8, align 1
  %34 = alloca i8, align 1
  %35 = alloca ptr, align 8
  store ptr %0, ptr %17, align 8, !tbaa !10
  store ptr %1, ptr %18, align 8, !tbaa !10
  store ptr %2, ptr %19, align 8, !tbaa !10
  store ptr %3, ptr %20, align 8, !tbaa !10
  store ptr %4, ptr %21, align 8, !tbaa !10
  store ptr %5, ptr %22, align 8, !tbaa !10
  store ptr %6, ptr %23, align 8, !tbaa !10
  store ptr %7, ptr %24, align 8, !tbaa !10
  store ptr %8, ptr %25, align 8, !tbaa !10
  store ptr %9, ptr %26, align 8, !tbaa !10
  store ptr %10, ptr %27, align 8, !tbaa !10
  store ptr %11, ptr %28, align 8, !tbaa !10
  store ptr %12, ptr %29, align 8, !tbaa !10
  store ptr %13, ptr %30, align 8, !tbaa !10
  store ptr %14, ptr %31, align 8, !tbaa !10
  store ptr %15, ptr %32, align 8, !tbaa !10
  br label %36

36:                                               ; preds = %16
  call void @llvm.lifetime.start.p0(i64 1, ptr %33) #7
  call void @llvm.lifetime.start.p0(i64 1, ptr %34) #7
  call void @llvm.lifetime.start.p0(i64 8, ptr %35) #7
  %37 = load ptr, ptr %25, align 8, !tbaa !10
  %38 = call i64 @lean_unbox(ptr noundef %37)
  %39 = trunc i64 %38 to i8
  store i8 %39, ptr %33, align 1, !tbaa !12
  %40 = load ptr, ptr %25, align 8, !tbaa !10
  call void @lean_dec(ptr noundef %40)
  %41 = load ptr, ptr %26, align 8, !tbaa !10
  %42 = call i64 @lean_unbox(ptr noundef %41)
  %43 = trunc i64 %42 to i8
  store i8 %43, ptr %34, align 1, !tbaa !12
  %44 = load ptr, ptr %26, align 8, !tbaa !10
  call void @lean_dec(ptr noundef %44)
  %45 = load ptr, ptr %17, align 8, !tbaa !10
  %46 = load ptr, ptr %18, align 8, !tbaa !10
  %47 = load ptr, ptr %19, align 8, !tbaa !10
  %48 = load ptr, ptr %20, align 8, !tbaa !10
  %49 = load ptr, ptr %21, align 8, !tbaa !10
  %50 = load ptr, ptr %22, align 8, !tbaa !10
  %51 = load ptr, ptr %23, align 8, !tbaa !10
  %52 = load ptr, ptr %24, align 8, !tbaa !10
  %53 = load i8, ptr %33, align 1, !tbaa !12
  %54 = load i8, ptr %34, align 1, !tbaa !12
  %55 = load ptr, ptr %27, align 8, !tbaa !10
  %56 = load ptr, ptr %28, align 8, !tbaa !10
  %57 = load ptr, ptr %29, align 8, !tbaa !10
  %58 = load ptr, ptr %30, align 8, !tbaa !10
  %59 = load ptr, ptr %31, align 8, !tbaa !10
  %60 = load ptr, ptr %32, align 8, !tbaa !10
  %61 = call ptr @l_Lake_buildSharedLib(ptr noundef %45, ptr noundef %46, ptr noundef %47, ptr noundef %48, ptr noundef %49, ptr noundef %50, ptr noundef %51, ptr noundef %52, i8 noundef zeroext %53, i8 noundef zeroext %54, ptr noundef %55, ptr noundef %56, ptr noundef %57, ptr noundef %58, ptr noundef %59, ptr noundef %60)
  store ptr %61, ptr %35, align 8, !tbaa !10
  %62 = load ptr, ptr %19, align 8, !tbaa !10
  call void @lean_dec(ptr noundef %62)
  %63 = load ptr, ptr %35, align 8, !tbaa !10
  call void @llvm.lifetime.end.p0(i64 8, ptr %35) #7
  call void @llvm.lifetime.end.p0(i64 1, ptr %34) #7
  call void @llvm.lifetime.end.p0(i64 1, ptr %33) #7
  ret ptr %63
}