; Function Attrs: nounwind uwtable
define ptr @l_Lake_buildSharedLib___boxed(ptr noundef %0, ptr noundef %1, ptr noundef %2, ptr noundef %3, ptr noundef %4, ptr noundef %5, ptr noundef %6, ptr noundef %7, ptr noundef %8, ptr noundef %9, ptr noundef %10, ptr noundef %11, ptr noundef %12, ptr noundef %13, ptr noundef %14, ptr noundef %15) local_unnamed_addr #0 {
  %17 = ptrtoint ptr %8 to i64
  %18 = and i64 %17, 1
  %.not = icmp eq i64 %18, 0
  br i1 %.not, label %19, label %lean_dec.exit22

19:                                               ; preds = %16
  %20 = load i32, ptr %8, align 4, !tbaa !4
  %21 = icmp sgt i32 %20, 1
  br i1 %21, label %22, label %24, !prof !12

22:                                               ; preds = %19
  %23 = add nsw i32 %20, -1
  store i32 %23, ptr %8, align 4, !tbaa !4
  br label %lean_dec.exit22

24:                                               ; preds = %19
  %.not.i = icmp eq i32 %20, 0
  br i1 %.not.i, label %lean_dec.exit22, label %25

25:                                               ; preds = %24
  tail call void @lean_dec_ref_cold(ptr noundef nonnull %8) #5
  br label %lean_dec.exit22

lean_dec.exit22:                                  ; preds = %25, %24, %22, %16
  %26 = ptrtoint ptr %9 to i64
  %27 = and i64 %26, 1
  %.not27 = icmp eq i64 %27, 0
  br i1 %.not27, label %28, label %lean_dec.exit21

28:                                               ; preds = %lean_dec.exit22
  %29 = load i32, ptr %9, align 4, !tbaa !4
  %30 = icmp sgt i32 %29, 1
  br i1 %30, label %31, label %33, !prof !12

31:                                               ; preds = %28
  %32 = add nsw i32 %29, -1
  store i32 %32, ptr %9, align 4, !tbaa !4
  br label %lean_dec.exit21

33:                                               ; preds = %28
  %.not.i23 = icmp eq i32 %29, 0
  br i1 %.not.i23, label %lean_dec.exit21, label %34

34:                                               ; preds = %33
  tail call void @lean_dec_ref_cold(ptr noundef nonnull %9) #5
  br label %lean_dec.exit21

lean_dec.exit21:                                  ; preds = %34, %33, %31, %lean_dec.exit22
  %35 = load ptr, ptr @l_Lake_buildSharedLib___closed__1, align 8, !tbaa !9
  %36 = tail call ptr @l_Lake_Job_collectArray___rarg(ptr noundef %2, ptr noundef %35) #5
  tail call void @lean_inc_heartbeat() #5
  %37 = tail call noalias ptr @mi_malloc_small(i64 noundef 96) #5
  %38 = icmp eq ptr %37, null
  br i1 %38, label %39, label %l_Lake_buildSharedLib.exit

39:                                               ; preds = %lean_dec.exit21
  tail call void @lean_internal_panic_out_of_memory() #6
  unreachable

l_Lake_buildSharedLib.exit:                       ; preds = %lean_dec.exit21
  %40 = and i64 %17, 510
  %41 = or disjoint i64 %40, 1
  %42 = inttoptr i64 %41 to ptr
  %43 = and i64 %26, 510
  %44 = or disjoint i64 %43, 1
  %45 = inttoptr i64 %44 to ptr
  %46 = getelementptr inbounds nuw i8, ptr %37, i64 4
  store i32 1, ptr %37, align 4, !tbaa !4
  store i32 -184549280, ptr %46, align 4
  %47 = getelementptr inbounds nuw i8, ptr %37, i64 8
  store ptr @l_Lake_buildSharedLib___lambda__3___boxed, ptr %47, align 8, !tbaa !9
  %48 = getelementptr inbounds nuw i8, ptr %37, i64 16
  store i16 16, ptr %48, align 8, !tbaa !15
  %49 = getelementptr inbounds nuw i8, ptr %37, i64 18
  store i16 9, ptr %49, align 2, !tbaa !15
  %50 = getelementptr inbounds nuw i8, ptr %37, i64 24
  store ptr %3, ptr %50, align 8, !tbaa !9
  %51 = getelementptr inbounds nuw i8, ptr %37, i64 32
  store ptr %5, ptr %51, align 8, !tbaa !9
  %52 = getelementptr inbounds nuw i8, ptr %37, i64 40
  store ptr %7, ptr %52, align 8, !tbaa !9
  %53 = getelementptr inbounds nuw i8, ptr %37, i64 48
  store ptr %4, ptr %53, align 8, !tbaa !9
  %54 = getelementptr inbounds nuw i8, ptr %37, i64 56
  store ptr %1, ptr %54, align 8, !tbaa !9
  %55 = getelementptr inbounds nuw i8, ptr %37, i64 64
  store ptr %6, ptr %55, align 8, !tbaa !9
  %56 = getelementptr inbounds nuw i8, ptr %37, i64 72
  store ptr %45, ptr %56, align 8, !tbaa !9
  %57 = getelementptr inbounds nuw i8, ptr %37, i64 80
  store ptr %0, ptr %57, align 8, !tbaa !9
  %58 = getelementptr inbounds nuw i8, ptr %37, i64 88
  store ptr %42, ptr %58, align 8, !tbaa !9
  %59 = load ptr, ptr @l_Task_Priority_default, align 8, !tbaa !9
  %60 = tail call ptr @l_Lake_Job_bindM___at_Lake_buildSharedLib___spec__7(ptr noundef %36, ptr noundef nonnull %37, ptr noundef %59, i8 noundef zeroext 0, ptr noundef %10, ptr noundef %11, ptr noundef %12, ptr noundef %13, ptr noundef %14, ptr noundef %15)
  %61 = ptrtoint ptr %2 to i64
  %62 = and i64 %61, 1
  %.not28 = icmp eq i64 %62, 0
  br i1 %.not28, label %63, label %lean_dec.exit

63:                                               ; preds = %l_Lake_buildSharedLib.exit
  %64 = load i32, ptr %2, align 4, !tbaa !4
  %65 = icmp sgt i32 %64, 1
  br i1 %65, label %66, label %68, !prof !12

66:                                               ; preds = %63
  %67 = add nsw i32 %64, -1
  store i32 %67, ptr %2, align 4, !tbaa !4
  br label %lean_dec.exit

68:                                               ; preds = %63
  %.not.i25 = icmp eq i32 %64, 0
  br i1 %.not.i25, label %lean_dec.exit, label %69

69:                                               ; preds = %68
  tail call void @lean_dec_ref_cold(ptr noundef nonnull %2) #5
  br label %lean_dec.exit

lean_dec.exit:                                    ; preds = %69, %68, %66, %l_Lake_buildSharedLib.exit
  ret ptr %60
}